; ModuleID = '58/997.c'
source_filename = "58/997.c"
target datalayout = "e-m:e-p270:32:32-p271:32:32-p272:64:64-i64:64-f80:128-n8:16:32:64-S128"
target triple = "x86_64-pc-linux-gnu"

@.str = private unnamed_addr constant [3 x i8] c"%d\00", align 1
@.str.1 = private unnamed_addr constant [3 x i8] c"1\0A\00", align 1
@.str.2 = private unnamed_addr constant [3 x i8] c"0\0A\00", align 1

; Function Attrs: noinline nounwind uwtable
define dso_local void @main() #0 {
  %1 = alloca [81 x i8], align 16
  %2 = alloca i32, align 4
  %3 = alloca i32, align 4
  %4 = alloca i32, align 4
  %5 = alloca i32, align 4
  %6 = alloca i32, align 4
  store i32 0, i32* %5, align 4
  %7 = call i32 (i8*, ...) @__isoc99_scanf(i8* getelementptr inbounds ([3 x i8], [3 x i8]* @.str, i64 0, i64 0), i32* %2)
  %8 = call i32 @getchar()
  store i32 0, i32* %3, align 4
  br label %9

9:                                                ; preds = %171, %0
  %10 = load i32, i32* %3, align 4
  %11 = load i32, i32* %2, align 4
  %12 = icmp slt i32 %10, %11
  br i1 %12, label %13, label %174

13:                                               ; preds = %9
  %14 = getelementptr inbounds [81 x i8], [81 x i8]* %1, i64 0, i64 0
  %15 = call i32 (i8*, ...) bitcast (i32 (...)* @gets to i32 (i8*, ...)*)(i8* %14)
  %16 = getelementptr inbounds [81 x i8], [81 x i8]* %1, i64 0, i64 0
  %17 = call i64 @strlen(i8* %16) #3
  %18 = icmp eq i64 %17, 1
  br i1 %18, label %19, label %49

19:                                               ; preds = %13
  %20 = getelementptr inbounds [81 x i8], [81 x i8]* %1, i64 0, i64 0
  %21 = load i8, i8* %20, align 16
  %22 = sext i8 %21 to i32
  %23 = icmp eq i32 %22, 95
  br i1 %23, label %44, label %24

24:                                               ; preds = %19
  %25 = getelementptr inbounds [81 x i8], [81 x i8]* %1, i64 0, i64 0
  %26 = load i8, i8* %25, align 16
  %27 = sext i8 %26 to i32
  %28 = icmp sge i32 %27, 97
  br i1 %28, label %29, label %34

29:                                               ; preds = %24
  %30 = getelementptr inbounds [81 x i8], [81 x i8]* %1, i64 0, i64 0
  %31 = load i8, i8* %30, align 16
  %32 = sext i8 %31 to i32
  %33 = icmp sle i32 %32, 122
  br i1 %33, label %44, label %34

34:                                               ; preds = %29, %24
  %35 = getelementptr inbounds [81 x i8], [81 x i8]* %1, i64 0, i64 0
  %36 = load i8, i8* %35, align 16
  %37 = sext i8 %36 to i32
  %38 = icmp sge i32 %37, 65
  br i1 %38, label %39, label %46

39:                                               ; preds = %34
  %40 = getelementptr inbounds [81 x i8], [81 x i8]* %1, i64 0, i64 0
  %41 = load i8, i8* %40, align 16
  %42 = sext i8 %41 to i32
  %43 = icmp sle i32 %42, 90
  br i1 %43, label %44, label %46

44:                                               ; preds = %39, %29, %19
  %45 = call i32 (i8*, ...) @printf(i8* getelementptr inbounds ([3 x i8], [3 x i8]* @.str.1, i64 0, i64 0))
  br label %48

46:                                               ; preds = %39, %34
  %47 = call i32 (i8*, ...) @printf(i8* getelementptr inbounds ([3 x i8], [3 x i8]* @.str.2, i64 0, i64 0))
  br label %48

48:                                               ; preds = %46, %44
  br label %49

49:                                               ; preds = %48, %13
  %50 = getelementptr inbounds [81 x i8], [81 x i8]* %1, i64 0, i64 0
  %51 = call i64 @strlen(i8* %50) #3
  %52 = icmp ugt i64 %51, 1
  br i1 %52, label %53, label %170

53:                                               ; preds = %49
  %54 = getelementptr inbounds [81 x i8], [81 x i8]* %1, i64 0, i64 0
  %55 = load i8, i8* %54, align 16
  %56 = sext i8 %55 to i32
  %57 = icmp eq i32 %56, 95
  br i1 %57, label %78, label %58

58:                                               ; preds = %53
  %59 = getelementptr inbounds [81 x i8], [81 x i8]* %1, i64 0, i64 0
  %60 = load i8, i8* %59, align 16
  %61 = sext i8 %60 to i32
  %62 = icmp sge i32 %61, 97
  br i1 %62, label %63, label %68

63:                                               ; preds = %58
  %64 = getelementptr inbounds [81 x i8], [81 x i8]* %1, i64 0, i64 0
  %65 = load i8, i8* %64, align 16
  %66 = sext i8 %65 to i32
  %67 = icmp sle i32 %66, 122
  br i1 %67, label %78, label %68

68:                                               ; preds = %63, %58
  %69 = getelementptr inbounds [81 x i8], [81 x i8]* %1, i64 0, i64 0
  %70 = load i8, i8* %69, align 16
  %71 = sext i8 %70 to i32
  %72 = icmp sge i32 %71, 65
  br i1 %72, label %73, label %160

73:                                               ; preds = %68
  %74 = getelementptr inbounds [81 x i8], [81 x i8]* %1, i64 0, i64 0
  %75 = load i8, i8* %74, align 16
  %76 = sext i8 %75 to i32
  %77 = icmp sle i32 %76, 90
  br i1 %77, label %78, label %160

78:                                               ; preds = %73, %63, %53
  store i32 1, i32* %4, align 4
  br label %79

79:                                               ; preds = %147, %78
  %80 = load i32, i32* %4, align 4
  %81 = sext i32 %80 to i64
  %82 = getelementptr inbounds [81 x i8], [81 x i8]* %1, i64 0, i64 0
  %83 = call i64 @strlen(i8* %82) #3
  %84 = icmp ult i64 %81, %83
  br i1 %84, label %85, label %150

85:                                               ; preds = %79
  %86 = load i32, i32* %4, align 4
  %87 = sext i32 %86 to i64
  %88 = getelementptr inbounds [81 x i8], [81 x i8]* %1, i64 0, i64 %87
  %89 = load i8, i8* %88, align 1
  %90 = sext i8 %89 to i32
  %91 = icmp sle i32 %90, 57
  br i1 %91, label %92, label %102

92:                                               ; preds = %85
  %93 = load i32, i32* %4, align 4
  %94 = sext i32 %93 to i64
  %95 = getelementptr inbounds [81 x i8], [81 x i8]* %1, i64 0, i64 %94
  %96 = load i8, i8* %95, align 1
  %97 = sext i8 %96 to i32
  %98 = icmp sge i32 %97, 48
  br i1 %98, label %99, label %102

99:                                               ; preds = %92
  %100 = load i32, i32* %5, align 4
  %101 = add nsw i32 %100, 1
  store i32 %101, i32* %5, align 4
  br label %102

102:                                              ; preds = %99, %92, %85
  %103 = load i32, i32* %4, align 4
  %104 = sext i32 %103 to i64
  %105 = getelementptr inbounds [81 x i8], [81 x i8]* %1, i64 0, i64 %104
  %106 = load i8, i8* %105, align 1
  %107 = sext i8 %106 to i32
  %108 = icmp eq i32 %107, 95
  br i1 %108, label %109, label %112

109:                                              ; preds = %102
  %110 = load i32, i32* %5, align 4
  %111 = add nsw i32 %110, 1
  store i32 %111, i32* %5, align 4
  br label %112

112:                                              ; preds = %109, %102
  %113 = load i32, i32* %4, align 4
  %114 = sext i32 %113 to i64
  %115 = getelementptr inbounds [81 x i8], [81 x i8]* %1, i64 0, i64 %114
  %116 = load i8, i8* %115, align 1
  %117 = sext i8 %116 to i32
  %118 = icmp sge i32 %117, 97
  br i1 %118, label %119, label %129

119:                                              ; preds = %112
  %120 = load i32, i32* %4, align 4
  %121 = sext i32 %120 to i64
  %122 = getelementptr inbounds [81 x i8], [81 x i8]* %1, i64 0, i64 %121
  %123 = load i8, i8* %122, align 1
  %124 = sext i8 %123 to i32
  %125 = icmp sle i32 %124, 122
  br i1 %125, label %126, label %129

126:                                              ; preds = %119
  %127 = load i32, i32* %5, align 4
  %128 = add nsw i32 %127, 1
  store i32 %128, i32* %5, align 4
  br label %129

129:                                              ; preds = %126, %119, %112
  %130 = load i32, i32* %4, align 4
  %131 = sext i32 %130 to i64
  %132 = getelementptr inbounds [81 x i8], [81 x i8]* %1, i64 0, i64 %131
  %133 = load i8, i8* %132, align 1
  %134 = sext i8 %133 to i32
  %135 = icmp sge i32 %134, 65
  br i1 %135, label %136, label %146

136:                                              ; preds = %129
  %137 = load i32, i32* %4, align 4
  %138 = sext i32 %137 to i64
  %139 = getelementptr inbounds [81 x i8], [81 x i8]* %1, i64 0, i64 %138
  %140 = load i8, i8* %139, align 1
  %141 = sext i8 %140 to i32
  %142 = icmp sle i32 %141, 90
  br i1 %142, label %143, label %146

143:                                              ; preds = %136
  %144 = load i32, i32* %5, align 4
  %145 = add nsw i32 %144, 1
  store i32 %145, i32* %5, align 4
  br label %146

146:                                              ; preds = %143, %136, %129
  br label %147

147:                                              ; preds = %146
  %148 = load i32, i32* %4, align 4
  %149 = add nsw i32 %148, 1
  store i32 %149, i32* %4, align 4
  br label %79

150:                                              ; preds = %79
  %151 = load i32, i32* %5, align 4
  %152 = sext i32 %151 to i64
  %153 = getelementptr inbounds [81 x i8], [81 x i8]* %1, i64 0, i64 0
  %154 = call i64 @strlen(i8* %153) #3
  %155 = sub i64 %154, 1
  %156 = icmp eq i64 %152, %155
  br i1 %156, label %157, label %159

157:                                              ; preds = %150
  %158 = call i32 (i8*, ...) @printf(i8* getelementptr inbounds ([3 x i8], [3 x i8]* @.str.1, i64 0, i64 0))
  br label %159

159:                                              ; preds = %157, %150
  br label %160

160:                                              ; preds = %159, %73, %68
  %161 = load i32, i32* %5, align 4
  %162 = sext i32 %161 to i64
  %163 = getelementptr inbounds [81 x i8], [81 x i8]* %1, i64 0, i64 0
  %164 = call i64 @strlen(i8* %163) #3
  %165 = sub i64 %164, 1
  %166 = icmp ne i64 %162, %165
  br i1 %166, label %167, label %169

167:                                              ; preds = %160
  %168 = call i32 (i8*, ...) @printf(i8* getelementptr inbounds ([3 x i8], [3 x i8]* @.str.2, i64 0, i64 0))
  br label %169

169:                                              ; preds = %167, %160
  store i32 0, i32* %5, align 4
  br label %170

170:                                              ; preds = %169, %49
  br label %171

171:                                              ; preds = %170
  %172 = load i32, i32* %3, align 4
  %173 = add nsw i32 %172, 1
  store i32 %173, i32* %3, align 4
  br label %9

174:                                              ; preds = %9
  ret void
}

declare dso_local i32 @__isoc99_scanf(i8*, ...) #1

declare dso_local i32 @getchar() #1

declare dso_local i32 @gets(...) #1

; Function Attrs: nounwind readonly
declare dso_local i64 @strlen(i8*) #2

declare dso_local i32 @printf(i8*, ...) #1


!llvm.module.flags = !{!0}
!llvm.ident = !{!1}

!0 = !{i32 1, !"wchar_size", i32 4}
!1 = !{!"clang version 10.0.0-4ubuntu1 "}
